; ModuleID = '31/1527.c'
source_filename = "31/1527.c"
target datalayout = "e-m:e-p270:32:32-p271:32:32-p272:64:64-i64:64-f80:128-n8:16:32:64-S128"
target triple = "x86_64-pc-linux-gnu"

%struct.stu = type { [100 x i8], %struct.stu* }

@n = common dso_local global i32 0, align 4
@.str = private unnamed_addr constant [4 x i8] c"end\00", align 1
@.str.1 = private unnamed_addr constant [4 x i8] c"%s\0A\00", align 1

; Function Attrs: noinline nounwind uwtable
define dso_local %struct.stu* @creat() #0 {
  %1 = alloca %struct.stu*, align 8
  %2 = alloca %struct.stu*, align 8
  store i32 0, i32* @n, align 4
  %3 = call noalias i8* @malloc(i64 100) #4
  %4 = bitcast i8* %3 to %struct.stu*
  store %struct.stu* %4, %struct.stu** %2, align 8
  store %struct.stu* %4, %struct.stu** %1, align 8
  %5 = load %struct.stu*, %struct.stu** %1, align 8
  %6 = getelementptr inbounds %struct.stu, %struct.stu* %5, i32 0, i32 0
  %7 = getelementptr inbounds [100 x i8], [100 x i8]* %6, i64 0, i64 0
  %8 = call i32 (i8*, ...) bitcast (i32 (...)* @gets to i32 (i8*, ...)*)(i8* %7)
  br label %9

9:                                                ; preds = %34, %0
  %10 = load %struct.stu*, %struct.stu** %1, align 8
  %11 = getelementptr inbounds %struct.stu, %struct.stu* %10, i32 0, i32 0
  %12 = getelementptr inbounds [100 x i8], [100 x i8]* %11, i64 0, i64 0
  %13 = call i32 @strcmp(i8* %12, i8* getelementptr inbounds ([4 x i8], [4 x i8]* @.str, i64 0, i64 0)) #5
  %14 = icmp ne i32 %13, 0
  br i1 %14, label %15, label %35

15:                                               ; preds = %9
  %16 = load i32, i32* @n, align 4
  %17 = add nsw i32 %16, 1
  store i32 %17, i32* @n, align 4
  %18 = load i32, i32* @n, align 4
  %19 = icmp eq i32 %18, 1
  br i1 %19, label %20, label %23

20:                                               ; preds = %15
  %21 = load %struct.stu*, %struct.stu** %1, align 8
  %22 = getelementptr inbounds %struct.stu, %struct.stu* %21, i32 0, i32 1
  store %struct.stu* null, %struct.stu** %22, align 8
  br label %34

23:                                               ; preds = %15
  %24 = call noalias i8* @malloc(i64 100) #4
  %25 = bitcast i8* %24 to %struct.stu*
  store %struct.stu* %25, %struct.stu** %1, align 8
  %26 = load %struct.stu*, %struct.stu** %2, align 8
  %27 = load %struct.stu*, %struct.stu** %1, align 8
  %28 = getelementptr inbounds %struct.stu, %struct.stu* %27, i32 0, i32 1
  store %struct.stu* %26, %struct.stu** %28, align 8
  %29 = load %struct.stu*, %struct.stu** %1, align 8
  store %struct.stu* %29, %struct.stu** %2, align 8
  %30 = load %struct.stu*, %struct.stu** %1, align 8
  %31 = getelementptr inbounds %struct.stu, %struct.stu* %30, i32 0, i32 0
  %32 = getelementptr inbounds [100 x i8], [100 x i8]* %31, i64 0, i64 0
  %33 = call i32 (i8*, ...) bitcast (i32 (...)* @gets to i32 (i8*, ...)*)(i8* %32)
  br label %34

34:                                               ; preds = %23, %20
  br label %9

35:                                               ; preds = %9
  %36 = load %struct.stu*, %struct.stu** %1, align 8
  ret %struct.stu* %36
}

; Function Attrs: nounwind
declare dso_local noalias i8* @malloc(i64) #1

declare dso_local i32 @gets(...) #2

; Function Attrs: nounwind readonly
declare dso_local i32 @strcmp(i8*, i8*) #3

; Function Attrs: noinline nounwind uwtable
define dso_local void @main() #0 {
  %1 = alloca %struct.stu*, align 8
  %2 = call %struct.stu* @creat()
  store %struct.stu* %2, %struct.stu** %1, align 8
  %3 = load %struct.stu*, %struct.stu** %1, align 8
  %4 = getelementptr inbounds %struct.stu, %struct.stu* %3, i32 0, i32 1
  %5 = load %struct.stu*, %struct.stu** %4, align 8
  store %struct.stu* %5, %struct.stu** %1, align 8
  br label %6

6:                                                ; preds = %9, %0
  %7 = load %struct.stu*, %struct.stu** %1, align 8
  %8 = icmp ne %struct.stu* %7, null
  br i1 %8, label %9, label %17

9:                                                ; preds = %6
  %10 = load %struct.stu*, %struct.stu** %1, align 8
  %11 = getelementptr inbounds %struct.stu, %struct.stu* %10, i32 0, i32 0
  %12 = getelementptr inbounds [100 x i8], [100 x i8]* %11, i64 0, i64 0
  %13 = call i32 (i8*, ...) @printf(i8* getelementptr inbounds ([4 x i8], [4 x i8]* @.str.1, i64 0, i64 0), i8* %12)
  %14 = load %struct.stu*, %struct.stu** %1, align 8
  %15 = getelementptr inbounds %struct.stu, %struct.stu* %14, i32 0, i32 1
  %16 = load %struct.stu*, %struct.stu** %15, align 8
  store %struct.stu* %16, %struct.stu** %1, align 8
  br label %6

17:                                               ; preds = %6
  ret void
}

declare dso_local i32 @printf(i8*, ...) #2


!llvm.module.flags = !{!0}
!llvm.ident = !{!1}

!0 = !{i32 1, !"wchar_size", i32 4}
!1 = !{!"clang version 10.0.0-4ubuntu1 "}
